; Function Attrs: mustprogress nounwind uwtable
define dso_local noundef ptr @_ZN4llvm9MDBuilder20createTBAAStructNodeENS_8ArrayRefINS0_15TBAAStructFieldEEE(ptr nocapture noundef nonnull readonly align 8 dereferenceable(8) %0, ptr nocapture readonly %1, i64 %2) local_unnamed_addr #0 align 2 {
  %4 = alloca %"class.llvm::SmallVector", align 8
  %5 = mul i64 %2, 3
  %6 = getelementptr inbounds i8, ptr %4, i64 16
  call void @_ZN4llvm15SmallVectorBaseIjEC2EPvm(ptr noundef nonnull align 8 dereferenceable(16) %4, ptr noundef nonnull %6, i64 noundef 4) #8
  call void @_ZN4llvm15SmallVectorImplIPNS_8MetadataEE10resizeImplILb0EEEvm(ptr noundef nonnull align 8 dereferenceable(16) %4, i64 noundef %5)
  %7 = load ptr, ptr %0, align 8
  %8 = call noundef ptr @_ZN4llvm4Type10getInt64TyERNS_11LLVMContextE(ptr noundef nonnull align 8 dereferenceable(8) %7) #8
  %9 = and i64 %2, 4294967295
  %.not15 = icmp eq i64 %9, 0
  br i1 %.not15, label %._crit_edge, label %.lr.ph.preheader

.lr.ph.preheader:                                 ; preds = %3
  %10 = and i64 %2, 4294967295
  br label %.lr.ph

.lr.ph:                                           ; preds = %.lr.ph.preheader, %.lr.ph
  %indvars.iv = phi i64 [ 0, %.lr.ph.preheader ], [ %indvars.iv.next, %.lr.ph ]
  %11 = getelementptr inbounds %"struct.llvm::MDBuilder::TBAAStructField", ptr %1, i64 %indvars.iv
  %12 = load i64, ptr %11, align 8
  %13 = call noundef ptr @_ZN4llvm11ConstantInt3getEPNS_4TypeEmb(ptr noundef %8, i64 noundef %12, i1 noundef zeroext false) #8
  %14 = call noundef ptr @_ZN4llvm15ValueAsMetadata3getEPNS_5ValueE(ptr noundef %13) #8
  %15 = trunc nuw i64 %indvars.iv to i32
  %16 = mul i32 %15, 3
  %17 = zext i32 %16 to i64
  %18 = load ptr, ptr %4, align 8
  %19 = getelementptr inbounds ptr, ptr %18, i64 %17
  store ptr %14, ptr %19, align 8
  %20 = getelementptr inbounds nuw i8, ptr %11, i64 8
  %21 = load i64, ptr %20, align 8
  %22 = call noundef ptr @_ZN4llvm11ConstantInt3getEPNS_4TypeEmb(ptr noundef %8, i64 noundef %21, i1 noundef zeroext false) #8
  %23 = call noundef ptr @_ZN4llvm15ValueAsMetadata3getEPNS_5ValueE(ptr noundef %22) #8
  %24 = add i32 %16, 1
  %25 = zext i32 %24 to i64
  %26 = load ptr, ptr %4, align 8
  %27 = getelementptr inbounds ptr, ptr %26, i64 %25
  store ptr %23, ptr %27, align 8
  %28 = getelementptr inbounds nuw i8, ptr %11, i64 16
  %29 = load ptr, ptr %28, align 8
  %30 = add i32 %16, 2
  %31 = zext i32 %30 to i64
  %32 = load ptr, ptr %4, align 8
  %33 = getelementptr inbounds ptr, ptr %32, i64 %31
  store ptr %29, ptr %33, align 8
  %indvars.iv.next = add nuw nsw i64 %indvars.iv, 1
  %.not = icmp eq i64 %indvars.iv.next, %10
  br i1 %.not, label %._crit_edge, label %.lr.ph, !llvm.loop !8

._crit_edge:                                      ; preds = %.lr.ph, %3
  %34 = load ptr, ptr %0, align 8
  %35 = load ptr, ptr %4, align 8
  %36 = call noundef i64 @_ZNK4llvm15SmallVectorBaseIjE4sizeEv(ptr noundef nonnull align 8 dereferenceable(16) %4) #8
  %37 = call noundef ptr @_ZN4llvm7MDTuple7getImplERNS_11LLVMContextENS_8ArrayRefIPNS_8MetadataEEENS4_11StorageTypeEb(ptr noundef nonnull align 8 dereferenceable(8) %34, ptr %35, i64 %36, i32 noundef 0, i1 noundef zeroext true) #8
  %38 = call noundef i64 @_ZNK4llvm15SmallVectorBaseIjE4sizeEv(ptr noundef nonnull align 8 dereferenceable(16) %4) #8
  %39 = load ptr, ptr %4, align 8
  %40 = icmp eq ptr %39, %6
  br i1 %40, label %_ZN4llvm11SmallVectorIPNS_8MetadataELj4EED2Ev.exit, label %41

41:                                               ; preds = %._crit_edge
  call void @free(ptr noundef %39) #8
  br label %_ZN4llvm11SmallVectorIPNS_8MetadataELj4EED2Ev.exit

_ZN4llvm11SmallVectorIPNS_8MetadataELj4EED2Ev.exit: ; preds = %._crit_edge, %41
  ret ptr %37
}